target datalayout = "e-m:e-p270:32:32-p271:32:32-p272:64:64-i64:64-i128:128-f80:128-n8:16:32:64-S128"
target triple = "x86_64-pc-linux-gnu"

%union.LWLockPadded = type { %struct.LWLock, [112 x i8] }
%struct.LWLock = type { i16, %struct.pg_atomic_uint32, %struct.proclist_head }
%struct.pg_atomic_uint32 = type { i32 }
%struct.proclist_head = type { i32, i32 }
%struct.ReplicationState = type { i16, i64, i64, i32, %struct.ConditionVariable, %struct.LWLock }
%struct.ConditionVariable = type { i8, %struct.proclist_head }

@max_replication_slots = external global i32, align 4
@replication_states = internal global ptr null, align 8
@MainLWLockArray = external global ptr, align 8

; Function Attrs: nounwind uwtable
define dso_local i64 @replorigin_get_progress(i16 noundef zeroext %0, i1 noundef zeroext %1) #0 {
  %3 = alloca i16, align 2
  %4 = alloca i8, align 1
  %5 = alloca i32, align 4
  %6 = alloca i64, align 8
  %7 = alloca i64, align 8
  %8 = alloca ptr, align 8
  %9 = alloca i32, align 4
  store i16 %0, ptr %3, align 2
  %10 = zext i1 %1 to i8
  store i8 %10, ptr %4, align 1
  call void @llvm.lifetime.start.p0(i64 4, ptr %5) #9
  call void @llvm.lifetime.start.p0(i64 8, ptr %6) #9
  store i64 0, ptr %6, align 8
  call void @llvm.lifetime.start.p0(i64 8, ptr %7) #9
  store i64 0, ptr %7, align 8
  %11 = load ptr, ptr @MainLWLockArray, align 8
  %12 = getelementptr inbounds %union.LWLockPadded, ptr %11, i64 40
  %13 = call zeroext i1 @LWLockAcquire(ptr noundef %12, i32 noundef 1)
  store i32 0, ptr %5, align 4
  br label %14

14:                                               ; preds = %46, %2
  %15 = load i32, ptr %5, align 4
  %16 = load i32, ptr @max_replication_slots, align 4
  %17 = icmp slt i32 %15, %16
  br i1 %17, label %18, label %49

18:                                               ; preds = %14
  call void @llvm.lifetime.start.p0(i64 8, ptr %8) #9
  %19 = load ptr, ptr @replication_states, align 8
  %20 = load i32, ptr %5, align 4
  %21 = sext i32 %20 to i64
  %22 = getelementptr inbounds %struct.ReplicationState, ptr %19, i64 %21
  store ptr %22, ptr %8, align 8
  %23 = load ptr, ptr %8, align 8
  %24 = getelementptr inbounds nuw %struct.ReplicationState, ptr %23, i32 0, i32 0
  %25 = load i16, ptr %24, align 8
  %26 = zext i16 %25 to i32
  %27 = load i16, ptr %3, align 2
  %28 = zext i16 %27 to i32
  %29 = icmp eq i32 %26, %28
  br i1 %29, label %30, label %42

30:                                               ; preds = %18
  %31 = load ptr, ptr %8, align 8
  %32 = getelementptr inbounds nuw %struct.ReplicationState, ptr %31, i32 0, i32 5
  %33 = call zeroext i1 @LWLockAcquire(ptr noundef %32, i32 noundef 1)
  %34 = load ptr, ptr %8, align 8
  %35 = getelementptr inbounds nuw %struct.ReplicationState, ptr %34, i32 0, i32 1
  %36 = load i64, ptr %35, align 8
  store i64 %36, ptr %7, align 8
  %37 = load ptr, ptr %8, align 8
  %38 = getelementptr inbounds nuw %struct.ReplicationState, ptr %37, i32 0, i32 2
  %39 = load i64, ptr %38, align 8
  store i64 %39, ptr %6, align 8
  %40 = load ptr, ptr %8, align 8
  %41 = getelementptr inbounds nuw %struct.ReplicationState, ptr %40, i32 0, i32 5
  call void @LWLockRelease(ptr noundef %41)
  store i32 2, ptr %9, align 4
  br label %43

42:                                               ; preds = %18
  store i32 0, ptr %9, align 4
  br label %43

43:                                               ; preds = %42, %30
  call void @llvm.lifetime.end.p0(i64 8, ptr %8) #9
  %44 = load i32, ptr %9, align 4
  switch i32 %44, label %61 [
    i32 0, label %45
    i32 2, label %49
  ]

45:                                               ; preds = %43
  br label %46

46:                                               ; preds = %45
  %47 = load i32, ptr %5, align 4
  %48 = add i32 %47, 1
  store i32 %48, ptr %5, align 4
  br label %14, !llvm.loop !14

49:                                               ; preds = %43, %14
  %50 = load ptr, ptr @MainLWLockArray, align 8
  %51 = getelementptr inbounds %union.LWLockPadded, ptr %50, i64 40
  call void @LWLockRelease(ptr noundef %51)
  %52 = load i8, ptr %4, align 1, !range !4, !noundef !5
  %53 = trunc i8 %52 to i1
  br i1 %53, label %54, label %59

54:                                               ; preds = %49
  %55 = load i64, ptr %6, align 8
  %56 = icmp ne i64 %55, 0
  br i1 %56, label %57, label %59

57:                                               ; preds = %54
  %58 = load i64, ptr %6, align 8
  call void @XLogFlush(i64 noundef %58)
  br label %59

59:                                               ; preds = %57, %54, %49
  %60 = load i64, ptr %7, align 8
  store i32 1, ptr %9, align 4
  call void @llvm.lifetime.end.p0(i64 8, ptr %7) #9
  call void @llvm.lifetime.end.p0(i64 8, ptr %6) #9
  call void @llvm.lifetime.end.p0(i64 4, ptr %5) #9
  ret i64 %60

61:                                               ; preds = %43
  unreachable
}