; Function Attrs: nounwind uwtable
define dso_local i64 @replorigin_get_progress(i16 noundef zeroext %0, i1 noundef zeroext %1) local_unnamed_addr #0 {
  %3 = load ptr, ptr @MainLWLockArray, align 8
  %4 = getelementptr inbounds nuw i8, ptr %3, i64 5120
  %5 = tail call zeroext i1 @LWLockAcquire(ptr noundef nonnull %4, i32 noundef 1) #10
  %6 = load i32, ptr @max_replication_slots, align 4
  %7 = icmp sgt i32 %6, 0
  br i1 %7, label %.lr.ph, label %.loopexit

.lr.ph:                                           ; preds = %2
  %8 = load ptr, ptr @replication_states, align 8
  %wide.trip.count = zext nneg i32 %6 to i64
  br label %10

9:                                                ; preds = %10
  %indvars.iv.next = add nuw nsw i64 %indvars.iv, 1
  %exitcond.not = icmp eq i64 %indvars.iv.next, %wide.trip.count
  br i1 %exitcond.not, label %.loopexit, label %10, !llvm.loop !14

10:                                               ; preds = %.lr.ph, %9
  %indvars.iv = phi i64 [ 0, %.lr.ph ], [ %indvars.iv.next, %9 ]
  %11 = getelementptr inbounds nuw %struct.ReplicationState, ptr %8, i64 %indvars.iv
  %12 = load i16, ptr %11, align 8
  %13 = icmp eq i16 %12, %0
  br i1 %13, label %14, label %9

14:                                               ; preds = %10
  %15 = getelementptr inbounds nuw i8, ptr %11, i64 40
  %16 = tail call zeroext i1 @LWLockAcquire(ptr noundef nonnull %15, i32 noundef 1) #10
  %17 = getelementptr inbounds nuw i8, ptr %11, i64 8
  %18 = load i64, ptr %17, align 8
  %19 = getelementptr inbounds nuw i8, ptr %11, i64 16
  %20 = load i64, ptr %19, align 8
  tail call void @LWLockRelease(ptr noundef nonnull %15) #10
  br label %.loopexit

.loopexit:                                        ; preds = %9, %2, %14
  %.117 = phi i64 [ %20, %14 ], [ 0, %2 ], [ 0, %9 ]
  %.1 = phi i64 [ %18, %14 ], [ 0, %2 ], [ 0, %9 ]
  %21 = load ptr, ptr @MainLWLockArray, align 8
  %22 = getelementptr inbounds nuw i8, ptr %21, i64 5120
  tail call void @LWLockRelease(ptr noundef nonnull %22) #10
  %23 = icmp ne i64 %.117, 0
  %or.cond = select i1 %1, i1 %23, i1 false
  br i1 %or.cond, label %24, label %25

24:                                               ; preds = %.loopexit
  tail call void @XLogFlush(i64 noundef %.117) #10
  br label %25

25:                                               ; preds = %24, %.loopexit
  ret i64 %.1
}